(ioptparse
Values
p0
(dp1
S'bSkipLambdaIndex'
p2
S''
p3
sS'methods'
p4
S'TI-CUBIC'
p5
sS'prefix'
p6
S'lambda*'
p7
sS'verbose'
p8
I00
sS'lv_names'
p9
(lp10
g3
asS'temperature'
p11
I298
sS'ddFs'
p12
(lp13
(dp14
S'TI-CUBIC'
p15
cnumpy.core.multiarray
scalar
p16
(cnumpy
dtype
p17
(S'f8'
p18
I0
I1
tp19
Rp20
(I3
S'<'
p21
NNNI-1
I-1
I0
tp22
bS'\x00\x00\x00\x00\x00\x00\x00\x00'
p23
tp24
Rp25
sa(dp26
g15
g16
(g20
S'\x80\xc7,,5Q\xba>'
p27
tp28
Rp29
sa(dp30
g15
g16
(g20
S'\x80\xc7,,5Q\xba>'
p31
tp32
Rp33
sasS'overlap'
p34
I00
sS'units'
p35
S'(kcal/mol)'
p36
sS'df_allk'
p37
cnumpy.core.multiarray
_reconstruct
p38
(cnumpy
ndarray
p39
(I0
tp40
S'b'
p41
tp42
Rp43
(I1
(I16
tp44
g17
(S'O8'
p45
I0
I1
tp46
Rp47
(I3
S'|'
p48
NNNI-1
I-1
I63
tp49
bI00
(lp50
(dp51
S'TI-CUBIC'
p52
g16
(g20
S'\xb1\xaa\xc5\xba3M0\xbf'
p53
tp54
Rp55
sa(dp56
g52
g16
(g20
S'\xd9\x89^-q\x06[?'
p57
tp58
Rp59
sa(dp60
g52
g16
(g20
S'\x90\xe4\xd8\x07Q\xbcs?'
p61
tp62
Rp63
sa(dp64
g52
g16
(g20
S'\\\x8fT9Cie?'
p65
tp66
Rp67
sa(dp68
g52
g16
(g20
S']\xfe\xdf\xe9O\xd81\xbf'
p69
tp70
Rp71
sa(dp72
g52
g16
(g20
S'\x9a\x83Q\xc6h\xbf\r\xbf'
p73
tp74
Rp75
sa(dp76
g52
g16
(g20
S'\xf4g\xce"r\xa4\x13\xbf'
p77
tp78
Rp79
sa(dp80
g52
g16
(g20
S'e\xf6\xe9\xaa\xaa\xc9\xee>'
p81
tp82
Rp83
sa(dp84
g52
g16
(g20
S'=\xe0\x98\xc8E\xbd\xe9\xbe'
p85
tp86
Rp87
sa(dp88
g52
g16
(g20
S'\xd0\xe2\xcd\x15\xde{\x10?'
p89
tp90
Rp91
sa(dp92
g52
g16
(g20
S'%1m-\x06_\x13?'
p93
tp94
Rp95
sa(dp96
g52
g16
(g20
S'\x11\xf2\xae\x81\x05F\x13\xbf'
p97
tp98
Rp99
sa(dp100
g52
g16
(g20
S'\x1a\x9ef\xc4F1\x10\xbf'
p101
tp102
Rp103
sa(dp104
g52
g16
(g20
S'v\xe5K\x04\x0e\xe6\xe1>'
p105
tp106
Rp107
sa(dp108
g52
g16
(g20
S'{\x87\x82\xe2?\xe6\xc3\xbe'
p109
tp110
Rp111
sa(dp112
g52
g16
(g20
S'J_\x03.U\x88\xaa>'
p113
tp114
Rp115
satp116
bsS'breakdown'
p117
I01
sS'datafile_directory'
p118
S'/users/steboss/projects/reproducibility/diatomic_pert/logP/no_vdW/run003/3000/cyclo/allbonds/output/analysis_gro'
p119
sS'bIgnoreWL'
p120
I00
sS'init_with'
p121
S'BAR'
p122
sS'dFs'
p123
(lp124
(dp125
g15
I0
sa(dp126
g15
g16
(g20
S'\xe9\xcd\xc6\x97\xc2H\x81?'
p127
tp128
Rp129
sa(dp130
g15
g16
(g20
S'\xe9\xcd\xc6\x97\xc2H\x81?'
p131
tp132
Rp133
sasS'output_directory'
p134
S'.'
p135
sS'beta'
p136
F0.40359852979970595
sS'ddf_allk'
p137
g38
(g39
(I0
tp138
g41
tp139
Rp140
(I1
(I16
tp141
g47
I00
(lp142
(dp143
g52
g16
(g20
S'\xfe^\x93\x02n\xd9z>'
p144
tp145
Rp146
sa(dp147
g52
g16
(g20
S'\xfcCp\x84\xa3\xff\xa0>'
p148
tp149
Rp150
sa(dp151
g52
g16
(g20
S'\x8a#SiVu\xad>'
p152
tp153
Rp154
sa(dp155
g52
g16
(g20
S'\xea\x12\xc6\x04\xc5\xc2\xa8>'
p156
tp157
Rp158
sa(dp159
g52
g16
(g20
S'\x8a\xb7\xbb\xe5/z\x83>'
p160
tp161
Rp162
sa(dp163
g52
g16
(g20
S'@\xd5\xa5s\x1c\x9ep>'
p164
tp165
Rp166
sa(dp167
g52
g16
(g20
S'\xeb\x97\xf5\x85\x1d\xd2d>'
p168
tp169
Rp170
sa(dp171
g52
g16
(g20
S'mk\xbe8\x94\x9a;>'
p172
tp173
Rp174
sa(dp175
g52
g16
(g20
S'\xb2;\x1d\x0clc9>'
p176
tp177
Rp178
sa(dp179
g52
g16
(g20
S'\x88\xa1\\\x137 d>'
p180
tp181
Rp182
sa(dp183
g52
g16
(g20
S'\x96\xfa{c\x1b=e>'
p184
tp185
Rp186
sa(dp187
g52
g16
(g20
S'\x0f\x02\xbe\x1a\xbd\xf9v>'
p188
tp189
Rp190
sa(dp191
g52
g16
(g20
S'\x19&\xfeq!]\x80>'
p192
tp193
Rp194
sa(dp195
g52
g16
(g20
S'\xb7\xd3\x84Z\x11\xe2w>'
p196
tp197
Rp198
sa(dp199
g52
g16
(g20
S'C\x11W\x90\xa4\xcaM>'
p200
tp201
Rp202
sa(dp203
g52
g16
(g20
S'\xd6`\x8f\xb5m\xdc3>'
p204
tp205
Rp206
satp207
bsS'when_analyzed'
p208
S'Thu Sep 22 13:55:00 2016'
p209
sS'uncorr_threshold'
p210
I0
sS'beta_report'
p211
F0.40359852979970595
sS'decimal'
p212
I4
sS'bForwrev'
p213
I0
sS'bCFM'
p214
I00
sS'suffix'
p215
g3
sS'equiltime'
p216
I0
sS'relative_tolerance'
p217
F1e-10
sS'software'
p218
S'Sire'
p219
sb.