(ioptparse
Values
p0
(dp1
S'bSkipLambdaIndex'
p2
S''
p3
sS'methods'
p4
S'TI-CUBIC'
p5
sS'prefix'
p6
S'lambda*'
p7
sS'verbose'
p8
I00
sS'lv_names'
p9
(lp10
g3
asS'temperature'
p11
I298
sS'ddFs'
p12
(lp13
(dp14
S'TI-CUBIC'
p15
cnumpy.core.multiarray
scalar
p16
(cnumpy
dtype
p17
(S'f8'
p18
I0
I1
tp19
Rp20
(I3
S'<'
p21
NNNI-1
I-1
I0
tp22
bS'\x00\x00\x00\x00\x00\x00\x00\x00'
p23
tp24
Rp25
sa(dp26
g15
g16
(g20
S'*\x8e\xe0\xfb\t\r\xba>'
p27
tp28
Rp29
sa(dp30
g15
g16
(g20
S'*\x8e\xe0\xfb\t\r\xba>'
p31
tp32
Rp33
sasS'overlap'
p34
I00
sS'units'
p35
S'(kcal/mol)'
p36
sS'df_allk'
p37
cnumpy.core.multiarray
_reconstruct
p38
(cnumpy
ndarray
p39
(I0
tp40
S'b'
p41
tp42
Rp43
(I1
(I16
tp44
g17
(S'O8'
p45
I0
I1
tp46
Rp47
(I3
S'|'
p48
NNNI-1
I-1
I63
tp49
bI00
(lp50
(dp51
S'TI-CUBIC'
p52
g16
(g20
S'\xd6\xf8\x98\xcbUP0\xbf'
p53
tp54
Rp55
sa(dp56
g52
g16
(g20
S'\x1e\xcf!\xcf\xbd\n[?'
p57
tp58
Rp59
sa(dp60
g52
g16
(g20
S'\xa3)\x8e\xcc\xb2\xbds?'
p61
tp62
Rp63
sa(dp64
g52
g16
(g20
S'}\x91~\x06\x8fie?'
p65
tp66
Rp67
sa(dp68
g52
g16
(g20
S"'\xc9H\xc3\x1f\xd51\xbf"
p69
tp70
Rp71
sa(dp72
g52
g16
(g20
S'\xe3\xf0\xbf1z\xaa\r\xbf'
p73
tp74
Rp75
sa(dp76
g52
g16
(g20
S'\x0e\xcc\x91+;\xa4\x13\xbf'
p77
tp78
Rp79
sa(dp80
g52
g16
(g20
S'fhq\xe6\xe9\xca\xee>'
p81
tp82
Rp83
sa(dp84
g52
g16
(g20
S'\xaa}-}\xac\xbe\xe9\xbe'
p85
tp86
Rp87
sa(dp88
g52
g16
(g20
S'e\xc7\xe7\xcf\xdf|\x10?'
p89
tp90
Rp91
sa(dp92
g52
g16
(g20
S'\xd4\xdf]+A`\x13?'
p93
tp94
Rp95
sa(dp96
g52
g16
(g20
S'\x17\xe6M\x98\xcdF\x13\xbf'
p97
tp98
Rp99
sa(dp100
g52
g16
(g20
S't\x93\x88]\xef+\x10\xbf'
p101
tp102
Rp103
sa(dp104
g52
g16
(g20
S'\x1c\xfb[\x7f\r\x0f\xe2>'
p105
tp106
Rp107
sa(dp108
g52
g16
(g20
S'\x8e\x7f\xdb=$\xff\xc3\xbe'
p109
tp110
Rp111
sa(dp112
g52
g16
(g20
S'\xb8T\xcf\xa7\x85\xa9\xaa>'
p113
tp114
Rp115
satp116
bsS'breakdown'
p117
I01
sS'datafile_directory'
p118
S'/users/steboss/projects/reproducibility/diatomic_pert/logP/no_vdW/run003/2000/cyclo/allbonds/output/analysis_gro'
p119
sS'bIgnoreWL'
p120
I00
sS'init_with'
p121
S'BAR'
p122
sS'dFs'
p123
(lp124
(dp125
g15
I0
sa(dp126
g15
g16
(g20
S'W\xc9b\x93<J\x81?'
p127
tp128
Rp129
sa(dp130
g15
g16
(g20
S'W\xc9b\x93<J\x81?'
p131
tp132
Rp133
sasS'output_directory'
p134
S'.'
p135
sS'beta'
p136
F0.40359852979970595
sS'ddf_allk'
p137
g38
(g39
(I0
tp138
g41
tp139
Rp140
(I1
(I16
tp141
g47
I00
(lp142
(dp143
g52
g16
(g20
S'\xbd|\x15b)\x9az>'
p144
tp145
Rp146
sa(dp147
g52
g16
(g20
S'5\xf5\xec\xa7j\xd8\xa0>'
p148
tp149
Rp150
sa(dp151
g52
g16
(g20
S'\xf5>\xd6P\xf6&\xad>'
p152
tp153
Rp154
sa(dp155
g52
g16
(g20
S'<\xf0\xacsA}\xa8>'
p156
tp157
Rp158
sa(dp159
g52
g16
(g20
S'QK\xec\x0e\x87N\x83>'
p160
tp161
Rp162
sa(dp163
g52
g16
(g20
S'\x8a#\xe3R\x05\xa2p>'
p164
tp165
Rp166
sa(dp167
g52
g16
(g20
S'[\x1a\xa3%\x07\x15e>'
p168
tp169
Rp170
sa(dp171
g52
g16
(g20
S'o\x9d\x1f\xfb5\xda;>'
p172
tp173
Rp174
sa(dp175
g52
g16
(g20
S'n\xae\xf6B\xf7Q9>'
p176
tp177
Rp178
sa(dp179
g52
g16
(g20
S'^\x81]1\x89\x0cd>'
p180
tp181
Rp182
sa(dp183
g52
g16
(g20
S'V\x80\xed\xc9\xa1)e>'
p184
tp185
Rp186
sa(dp187
g52
g16
(g20
S'6\x81\xec\xd4\xcd\xefv>'
p188
tp189
Rp190
sa(dp191
g52
g16
(g20
S'h\xc2[k\xab^\x80>'
p192
tp193
Rp194
sa(dp195
g52
g16
(g20
S'|>\xe8;\xdb\xefw>'
p196
tp197
Rp198
sa(dp199
g52
g16
(g20
S'\x04:K\xc6\x88\xdaM>'
p200
tp201
Rp202
sa(dp203
g52
g16
(g20
S'\x01|\x87\xd9\x05\xe73>'
p204
tp205
Rp206
satp207
bsS'when_analyzed'
p208
S'Thu Sep 22 13:52:43 2016'
p209
sS'uncorr_threshold'
p210
I0
sS'beta_report'
p211
F0.40359852979970595
sS'decimal'
p212
I4
sS'bForwrev'
p213
I0
sS'bCFM'
p214
I00
sS'suffix'
p215
g3
sS'equiltime'
p216
I0
sS'relative_tolerance'
p217
F1e-10
sS'software'
p218
S'Sire'
p219
sb.