(ioptparse
Values
p0
(dp1
S'bSkipLambdaIndex'
p2
S''
p3
sS'methods'
p4
S'TI-CUBIC'
p5
sS'prefix'
p6
S'lambda*'
p7
sS'verbose'
p8
I00
sS'lv_names'
p9
(lp10
g3
asS'temperature'
p11
I298
sS'ddFs'
p12
(lp13
(dp14
S'TI-CUBIC'
p15
cnumpy.core.multiarray
scalar
p16
(cnumpy
dtype
p17
(S'f8'
p18
I0
I1
tp19
Rp20
(I3
S'<'
p21
NNNI-1
I-1
I0
tp22
bS'\x00\x00\x00\x00\x00\x00\x00\x00'
p23
tp24
Rp25
sa(dp26
g15
g16
(g20
S'y\xa8\x1d\xdd\x9bCv?'
p27
tp28
Rp29
sa(dp30
g15
g16
(g20
S'y\xa8\x1d\xdd\x9bCv?'
p31
tp32
Rp33
sasS'overlap'
p34
I00
sS'units'
p35
S'(kcal/mol)'
p36
sS'df_allk'
p37
cnumpy.core.multiarray
_reconstruct
p38
(cnumpy
ndarray
p39
(I0
tp40
S'b'
p41
tp42
Rp43
(I1
(I16
tp44
g17
(S'O8'
p45
I0
I1
tp46
Rp47
(I3
S'|'
p48
NNNI-1
I-1
I63
tp49
bI00
(lp50
(dp51
S'TI-CUBIC'
p52
g16
(g20
S'\xa78\xd4(\x8d\xed\x81\xbf'
p53
tp54
Rp55
sa(dp56
g52
g16
(g20
S'\xcd_\xbeAmG4?'
p57
tp58
Rp59
sa(dp60
g52
g16
(g20
S'\r2\xe3\\2#m\xbf'
p61
tp62
Rp63
sa(dp64
g52
g16
(g20
S'\x1aB\x94\xa0?\xc5\x8f\xbf'
p65
tp66
Rp67
sa(dp68
g52
g16
(g20
S'\xec\xda\x7fU)o\x97?'
p69
tp70
Rp71
sa(dp72
g52
g16
(g20
S'$\xa8tN\xfd\x93\x94?'
p73
tp74
Rp75
sa(dp76
g52
g16
(g20
S'4t\xb1\xba\x90\xce\x89?'
p77
tp78
Rp79
sa(dp80
g52
g16
(g20
S'*\xa6\x11\xb0\x1c\xd5\x9c?'
p81
tp82
Rp83
sa(dp84
g52
g16
(g20
S'\xcc\xab\xba;\x13\x7f\x9a?'
p85
tp86
Rp87
sa(dp88
g52
g16
(g20
S'\xbb\x15\xb7\xd4Y4\x83?'
p89
tp90
Rp91
sa(dp92
g52
g16
(g20
S'\xb0\xb9\xac\xf0\xbe\x13w\xbf'
p93
tp94
Rp95
sa(dp96
g52
g16
(g20
S'\x85\xaa|\xd2Y\xc6Z?'
p97
tp98
Rp99
sa(dp100
g52
g16
(g20
S'\x0e\xd5-\xc2\x8f$q?'
p101
tp102
Rp103
sa(dp104
g52
g16
(g20
S'\xa34vE\x9a\xc4\x90?'
p105
tp106
Rp107
sa(dp108
g52
g16
(g20
S'\xa2{\xe4\xaf}\xea\x91?'
p109
tp110
Rp111
sa(dp112
g52
g16
(g20
S'\x8d\xc0F\x00\x07\xc3\x91?'
p113
tp114
Rp115
satp116
bsS'breakdown'
p117
I01
sS'datafile_directory'
p118
S'/users/steboss/projects/reproducibility/diatomic_pert/logP/no_vdW/run003/1092/water/none/output/analysis_gro'
p119
sS'bIgnoreWL'
p120
I00
sS'init_with'
p121
S'BAR'
p122
sS'dFs'
p123
(lp124
(dp125
g15
I0
sa(dp126
g15
g16
(g20
S'F\x9ej\xb4\xdaI\xc2?'
p127
tp128
Rp129
sa(dp130
g15
g16
(g20
S'F\x9ej\xb4\xdaI\xc2?'
p131
tp132
Rp133
sasS'output_directory'
p134
S'.'
p135
sS'beta'
p136
F0.40359852979970595
sS'ddf_allk'
p137
g38
(g39
(I0
tp138
g41
tp139
Rp140
(I1
(I16
tp141
g47
I00
(lp142
(dp143
g52
g16
(g20
S'\xb8\rc\x10\xfe\xa3P?'
p144
tp145
Rp146
sa(dp147
g52
g16
(g20
S':\x19x\x19\xd3?Q?'
p148
tp149
Rp150
sa(dp151
g52
g16
(g20
S'\xc7\xb0[\xb9noR?'
p152
tp153
Rp154
sa(dp155
g52
g16
(g20
S'\xe0\xa0\xd3j\x87-S?'
p156
tp157
Rp158
sa(dp159
g52
g16
(g20
S'4&\xcb\xfd\xfb<R?'
p160
tp161
Rp162
sa(dp163
g52
g16
(g20
S'\x14U\xeb\xf0?\x10R?'
p164
tp165
Rp166
sa(dp167
g52
g16
(g20
S'J\xd9\x81><`S?'
p168
tp169
Rp170
sa(dp171
g52
g16
(g20
S'\x1a\xcdD\x13|\x88S?'
p172
tp173
Rp174
sa(dp175
g52
g16
(g20
S'\x8f\xb9O\x98.\xb1Q?'
p176
tp177
Rp178
sa(dp179
g52
g16
(g20
S"]'\xba\x92f\x90P?"
p180
tp181
Rp182
sa(dp183
g52
g16
(g20
S'\x93\xfe!\x1f\x0f\xf4P?'
p184
tp185
Rp186
sa(dp187
g52
g16
(g20
S'{\xef~2\x91\xa0Q?'
p188
tp189
Rp190
sa(dp191
g52
g16
(g20
S'\x13v\x95\x06\xe7uR?'
p192
tp193
Rp194
sa(dp195
g52
g16
(g20
S'\xfb\xd9\xc1 \x99zR?'
p196
tp197
Rp198
sa(dp199
g52
g16
(g20
S'\x13\x13\xd9\x11t/R?'
p200
tp201
Rp202
sa(dp203
g52
g16
(g20
S'%6\x98\xad\xba?R?'
p204
tp205
Rp206
satp207
bsS'when_analyzed'
p208
S'Thu Sep 22 13:50:05 2016'
p209
sS'uncorr_threshold'
p210
I0
sS'beta_report'
p211
F0.40359852979970595
sS'decimal'
p212
I4
sS'bForwrev'
p213
I0
sS'bCFM'
p214
I00
sS'suffix'
p215
g3
sS'equiltime'
p216
I0
sS'relative_tolerance'
p217
F1e-10
sS'software'
p218
S'Sire'
p219
sb.