(ioptparse
Values
p0
(dp1
S'bSkipLambdaIndex'
p2
S''
p3
sS'methods'
p4
S'TI-CUBIC'
p5
sS'prefix'
p6
S'lambda*'
p7
sS'verbose'
p8
I00
sS'lv_names'
p9
(lp10
g3
asS'temperature'
p11
I298
sS'ddFs'
p12
(lp13
(dp14
S'TI-CUBIC'
p15
cnumpy.core.multiarray
scalar
p16
(cnumpy
dtype
p17
(S'f8'
p18
I0
I1
tp19
Rp20
(I3
S'<'
p21
NNNI-1
I-1
I0
tp22
bS'\x00\x00\x00\x00\x00\x00\x00\x00'
p23
tp24
Rp25
sa(dp26
g15
g16
(g20
S'\xa2\xc0\x89\xd5\xea\x8eu?'
p27
tp28
Rp29
sa(dp30
g15
g16
(g20
S'\xa2\xc0\x89\xd5\xea\x8eu?'
p31
tp32
Rp33
sasS'overlap'
p34
I00
sS'units'
p35
S'(kcal/mol)'
p36
sS'df_allk'
p37
cnumpy.core.multiarray
_reconstruct
p38
(cnumpy
ndarray
p39
(I0
tp40
S'b'
p41
tp42
Rp43
(I1
(I16
tp44
g17
(S'O8'
p45
I0
I1
tp46
Rp47
(I3
S'|'
p48
NNNI-1
I-1
I63
tp49
bI00
(lp50
(dp51
S'TI-CUBIC'
p52
g16
(g20
S'\xbc\xbc\xaba;\xea\x9c?'
p53
tp54
Rp55
sa(dp56
g52
g16
(g20
S'TF\xd1\x11\x1e(\x9a?'
p57
tp58
Rp59
sa(dp60
g52
g16
(g20
S'\xa4J\xf6\n\xd9\x86\x9b?'
p61
tp62
Rp63
sa(dp64
g52
g16
(g20
S'\x11\xd9\xef\xbbV\xd5\x95?'
p65
tp66
Rp67
sa(dp68
g52
g16
(g20
S'\xd2\x8e"C\x93\x0bW?'
p69
tp70
Rp71
sa(dp72
g52
g16
(g20
S'\r\xd0\x85\xf5\x80\xd9O?'
p73
tp74
Rp75
sa(dp76
g52
g16
(g20
S'\x86\xc2\x1d\xfe\tr\x88?'
p77
tp78
Rp79
sa(dp80
g52
g16
(g20
S'\x81k\xa091\x91t?'
p81
tp82
Rp83
sa(dp84
g52
g16
(g20
S'|\xf1\x8c\xe3\xb2$\x8a?'
p85
tp86
Rp87
sa(dp88
g52
g16
(g20
S'\xa6\x15\xf1\xa9AI\x9d?'
p89
tp90
Rp91
sa(dp92
g52
g16
(g20
S'L\x13\xc4\xbc\x11\xbe\x8c?'
p93
tp94
Rp95
sa(dp96
g52
g16
(g20
S'\x8d\x18\xfd5\x17\xfe}\xbf'
p97
tp98
Rp99
sa(dp100
g52
g16
(g20
S'\x83\xcd\xd5Fc\x0cs?'
p101
tp102
Rp103
sa(dp104
g52
g16
(g20
S'\xca\xfe\x01`\x16`\x93?'
p105
tp106
Rp107
sa(dp108
g52
g16
(g20
S'\n\x9a\xc4\xb2\xa0x\x8f?'
p109
tp110
Rp111
sa(dp112
g52
g16
(g20
S':\xc1\xcf\x0b\xee\x97\x97?'
p113
tp114
Rp115
satp116
bsS'breakdown'
p117
I01
sS'datafile_directory'
p118
S'/users/steboss/projects/reproducibility/diatomic_pert/logP/no_vdW/run003/2500/cyclo/none/output/analysis_gro'
p119
sS'bIgnoreWL'
p120
I00
sS'init_with'
p121
S'BAR'
p122
sS'dFs'
p123
(lp124
(dp125
g15
I0
sa(dp126
g15
g16
(g20
S'\x95\x89\xe7p\xbd\x9d\xcd?'
p127
tp128
Rp129
sa(dp130
g15
g16
(g20
S'\x95\x89\xe7p\xbd\x9d\xcd?'
p131
tp132
Rp133
sasS'output_directory'
p134
S'.'
p135
sS'beta'
p136
F0.40359852979970595
sS'ddf_allk'
p137
g38
(g39
(I0
tp138
g41
tp139
Rp140
(I1
(I16
tp141
g47
I00
(lp142
(dp143
g52
g16
(g20
S'\xe9\xe7b68\x97O?'
p144
tp145
Rp146
sa(dp147
g52
g16
(g20
S'\xaer{\x9c\x85\x00P?'
p148
tp149
Rp150
sa(dp151
g52
g16
(g20
S'\x9a\xb6\xc2\x99F\x90Q?'
p152
tp153
Rp154
sa(dp155
g52
g16
(g20
S'\xe6\x1a^K\x1eLQ?'
p156
tp157
Rp158
sa(dp159
g52
g16
(g20
S"n0'V\x11\xa0Q?"
p160
tp161
Rp162
sa(dp163
g52
g16
(g20
S'\xd9\xe4\r\xa0D:R?'
p164
tp165
Rp166
sa(dp167
g52
g16
(g20
S'@a\x10\xfd\x88\x95Q?'
p168
tp169
Rp170
sa(dp171
g52
g16
(g20
S'\xf5VR\xc6\xcdqR?'
p172
tp173
Rp174
sa(dp175
g52
g16
(g20
S'm\xb8\x10\troR?'
p176
tp177
Rp178
sa(dp179
g52
g16
(g20
S"\xd2\x12\xf9'`\xcbQ?"
p180
tp181
Rp182
sa(dp183
g52
g16
(g20
S'y\xc4\x16\xe3\x97\x9fQ?'
p184
tp185
Rp186
sa(dp187
g52
g16
(g20
S'\xbe\xe9\xbdu!\x7fQ?'
p188
tp189
Rp190
sa(dp191
g52
g16
(g20
S'\xef\xf8A\xf6\xa2WQ?'
p192
tp193
Rp194
sa(dp195
g52
g16
(g20
S'\xc3)\x00\x05\x10RQ?'
p196
tp197
Rp198
sa(dp199
g52
g16
(g20
S'\xf0\x03\xfe\x1fC\xb9Q?'
p200
tp201
Rp202
sa(dp203
g52
g16
(g20
S'g\xf7UJW\xcbQ?'
p204
tp205
Rp206
satp207
bsS'when_analyzed'
p208
S'Thu Sep 22 13:54:22 2016'
p209
sS'uncorr_threshold'
p210
I0
sS'beta_report'
p211
F0.40359852979970595
sS'decimal'
p212
I4
sS'bForwrev'
p213
I0
sS'bCFM'
p214
I00
sS'suffix'
p215
g3
sS'equiltime'
p216
I0
sS'relative_tolerance'
p217
F1e-10
sS'software'
p218
S'Sire'
p219
sb.